target datalayout = "e-m:e-p270:32:32-p271:32:32-p272:64:64-i64:64-i128:128-f80:128-n8:16:32:64-S128"
target triple = "x86_64-pc-linux-gnu"

; Function Attrs: alwaysinline nounwind uwtable
define internal float @ma_clip_f32(float noundef %0) #7 {
  %2 = alloca float, align 4
  %3 = alloca float, align 4
  store float %0, ptr %3, align 4
  %4 = load float, ptr %3, align 4
  %5 = fcmp olt float %4, -1.000000e+00
  br i1 %5, label %6, label %7

6:                                                ; preds = %1
  store float -1.000000e+00, ptr %2, align 4
  br label %13

7:                                                ; preds = %1
  %8 = load float, ptr %3, align 4
  %9 = fcmp ogt float %8, 1.000000e+00
  br i1 %9, label %10, label %11

10:                                               ; preds = %7
  store float 1.000000e+00, ptr %2, align 4
  br label %13

11:                                               ; preds = %7
  %12 = load float, ptr %3, align 4
  store float %12, ptr %2, align 4
  br label %13

13:                                               ; preds = %11, %10, %6
  %14 = load float, ptr %2, align 4
  ret float %14
}

; Function Attrs: alwaysinline nounwind uwtable
define internal float @ma_apply_volume_unclipped_f32(float noundef %0, float noundef %1) #7 {
  %3 = alloca float, align 4
  %4 = alloca float, align 4
  store float %0, ptr %3, align 4
  store float %1, ptr %4, align 4
  %5 = load float, ptr %3, align 4
  %6 = load float, ptr %4, align 4
  %7 = fmul float %5, %6
  ret float %7
}

; Function Attrs: nounwind uwtable
define hidden void @ma_copy_and_apply_volume_and_clip_samples_f32(ptr noundef %0, ptr noundef %1, i64 noundef %2, float noundef %3) #0 {
  %5 = alloca ptr, align 8
  %6 = alloca ptr, align 8
  %7 = alloca i64, align 8
  %8 = alloca float, align 4
  %9 = alloca i64, align 8
  store ptr %0, ptr %5, align 8
  store ptr %1, ptr %6, align 8
  store i64 %2, ptr %7, align 8
  store float %3, ptr %8, align 4
  call void @llvm.lifetime.start.p0(i64 8, ptr %9) #21
  store i64 0, ptr %9, align 8
  br label %10

10:                                               ; preds = %25, %4
  %11 = load i64, ptr %9, align 8
  %12 = load i64, ptr %7, align 8
  %13 = icmp ult i64 %11, %12
  br i1 %13, label %14, label %28

14:                                               ; preds = %10
  %15 = load ptr, ptr %6, align 8
  %16 = load i64, ptr %9, align 8
  %17 = getelementptr inbounds nuw float, ptr %15, i64 %16
  %18 = load float, ptr %17, align 4
  %19 = load float, ptr %8, align 4
  %20 = call float @ma_apply_volume_unclipped_f32(float noundef %18, float noundef %19)
  %21 = call float @ma_clip_f32(float noundef %20)
  %22 = load ptr, ptr %5, align 8
  %23 = load i64, ptr %9, align 8
  %24 = getelementptr inbounds nuw float, ptr %22, i64 %23
  store float %21, ptr %24, align 4
  br label %25

25:                                               ; preds = %14
  %26 = load i64, ptr %9, align 8
  %27 = add i64 %26, 1
  store i64 %27, ptr %9, align 8
  br label %10

28:                                               ; preds = %10
  call void @llvm.lifetime.end.p0(i64 8, ptr %9) #21
  ret void
}