; Function Attrs: nofree norecurse nosync nounwind memory(argmem: readwrite) uwtable
define hidden void @ma_copy_and_apply_volume_and_clip_samples_f32(ptr noundef writeonly captures(none) %0, ptr noundef readonly captures(none) %1, i64 noundef %2, float noundef %3) local_unnamed_addr #23 {
  %.not = icmp eq i64 %2, 0
  br i1 %.not, label %._crit_edge, label %.lr.ph

.lr.ph:                                           ; preds = %4, %.lr.ph
  %.07 = phi i64 [ %11, %.lr.ph ], [ 0, %4 ]
  %5 = getelementptr inbounds nuw float, ptr %1, i64 %.07
  %6 = load float, ptr %5, align 4
  %7 = fmul float %3, %6
  %8 = fcmp olt float %7, -1.000000e+00
  %9 = fcmp ogt float %7, 1.000000e+00
  %..i = select i1 %9, float 1.000000e+00, float %7
  %.0.i = select i1 %8, float -1.000000e+00, float %..i
  %10 = getelementptr inbounds nuw float, ptr %0, i64 %.07
  store float %.0.i, ptr %10, align 4
  %11 = add nuw i64 %.07, 1
  %exitcond.not = icmp eq i64 %11, %2
  br i1 %exitcond.not, label %._crit_edge, label %.lr.ph

._crit_edge:                                      ; preds = %.lr.ph, %4
  ret void
}